; Function Attrs: nounwind uwtable
define internal range(i32 0, 2) i32 @ecx_pub_decode(ptr noundef %0, ptr noundef %1) #0 {
  %3 = alloca ptr, align 8
  %4 = alloca i32, align 4
  %5 = alloca ptr, align 8
  call void @llvm.lifetime.start.p0(i64 8, ptr nonnull %3) #8
  call void @llvm.lifetime.start.p0(i64 4, ptr nonnull %4) #8
  call void @llvm.lifetime.start.p0(i64 8, ptr nonnull %5) #8
  %6 = call i32 @X509_PUBKEY_get0_param(ptr noundef null, ptr noundef nonnull %3, ptr noundef nonnull %4, ptr noundef nonnull %5, ptr noundef %1) #8
  %.not = icmp eq i32 %6, 0
  br i1 %.not, label %19, label %7

7:                                                ; preds = %2
  %8 = load ptr, ptr %5, align 8, !tbaa !3
  %9 = load ptr, ptr %3, align 8, !tbaa !8
  %10 = load i32, ptr %4, align 4, !tbaa !10
  %11 = getelementptr inbounds nuw i8, ptr %0, i64 8
  %12 = load ptr, ptr %11, align 8, !tbaa !12
  %13 = load i32, ptr %12, align 8, !tbaa !25
  %14 = call ptr @ossl_ecx_key_op(ptr noundef %8, ptr noundef %9, i32 noundef %10, i32 noundef %13, i32 noundef 0, ptr noundef null, ptr noundef null) #8
  %.not9 = icmp eq ptr %14, null
  br i1 %.not9, label %19, label %15

15:                                               ; preds = %7
  %16 = load ptr, ptr %11, align 8, !tbaa !12
  %17 = load i32, ptr %16, align 8, !tbaa !25
  %18 = call i32 @EVP_PKEY_assign(ptr noundef nonnull %0, i32 noundef %17, ptr noundef nonnull %14) #8
  br label %19

19:                                               ; preds = %7, %15, %2
  %.07 = phi i32 [ 0, %2 ], [ 1, %15 ], [ 0, %7 ]
  call void @llvm.lifetime.end.p0(i64 8, ptr nonnull %5) #8
  call void @llvm.lifetime.end.p0(i64 4, ptr nonnull %4) #8
  call void @llvm.lifetime.end.p0(i64 8, ptr nonnull %3) #8
  ret i32 %.07
}